target datalayout = "e-m:e-p270:32:32-p271:32:32-p272:64:64-i64:64-i128:128-f80:128-n8:16:32:64-S128"
target triple = "x86_64-unknown-linux-gnu"

%"class.hermes::Identifier" = type { ptr }
%"class.llvh::SMLoc" = type { ptr }
%"class.llvh::StringRef" = type { ptr, i64 }
%"class.llvh::SMRange" = type { %"class.llvh::SMLoc", %"class.llvh::SMLoc" }
%"class.hermes::irgen::ESTreeIRGen" = type { ptr, %"class.hermes::IRBuilder", %"class.hermes::IRInstrument", ptr, ptr, ptr, ptr, %"class.hermes::ScopedHashTable", %"class.std::shared_ptr", %"class.hermes::Identifier", %"class.hermes::Identifier", %"class.hermes::Identifier", ptr, ptr, %"class.llvh::DenseMap.0" }
%"class.hermes::IRBuilder" = type { ptr, %"class.llvh::ilist_iterator", ptr, %"class.llvh::SMLoc", ptr }
%"class.llvh::ilist_iterator" = type { ptr }
%"class.hermes::IRInstrument" = type { i8 }
%"class.hermes::ScopedHashTable" = type { %"class.llvh::DenseMap", ptr }
%"class.llvh::DenseMap" = type <{ ptr, i32, i32, i32, [4 x i8] }>
%"class.std::shared_ptr" = type { %"class.std::__shared_ptr" }
%"class.std::__shared_ptr" = type { ptr, %"class.std::__shared_count" }
%"class.std::__shared_count" = type { ptr }
%"class.llvh::DenseMap.0" = type <{ ptr, i32, i32, i32, [4 x i8] }>
%"class.hermes::ESTree::Node" = type { %"class.llvh::ilist_node", i32, i32, %"class.llvh::SMRange", %"class.llvh::SMLoc" }
%"class.llvh::ilist_node" = type { %"class.llvh::ilist_node_impl" }
%"class.llvh::ilist_node_impl" = type { %"class.llvh::ilist_node_base" }
%"class.llvh::ilist_node_base" = type { ptr, ptr }
%"class.llvh::SmallVectorBase" = type { ptr, i32, i32 }
%"class.hermes::UniqueString" = type { %"class.llvh::StringRef" }
%"struct.llvh::AlignedCharArray" = type { [8 x i8] }
%"class.hermes::ESTree::LogicalExpressionNode" = type { %"class.hermes::ESTree::Node", ptr, ptr, ptr }
%"class.hermes::Value" = type { i8, %"class.hermes::Type", %"class.llvh::SmallVector" }
%"class.hermes::Type" = type { i16, i16 }
%"class.llvh::SmallVector" = type { %"class.llvh::SmallVectorImpl", %"struct.llvh::SmallVectorStorage" }
%"class.llvh::SmallVectorImpl" = type { %"class.llvh::SmallVectorTemplateBase" }
%"class.llvh::SmallVectorTemplateBase" = type { %"class.llvh::SmallVectorTemplateCommon" }
%"class.llvh::SmallVectorTemplateCommon" = type { %"class.llvh::SmallVectorBase" }
%"struct.llvh::SmallVectorStorage" = type { [2 x %"struct.llvh::AlignedCharArrayUnion"] }
%"struct.llvh::AlignedCharArrayUnion" = type { %"struct.llvh::AlignedCharArray" }
%"class.llvh::ilist_node_impl.6" = type { %"class.llvh::ilist_node_base" }
%"class.hermes::BasicBlock" = type { %"class.llvh::ilist_node_with_parent.203", %"class.hermes::Value", %"class.llvh::iplist.205", ptr }
%"class.llvh::ilist_node_with_parent.203" = type { %"class.llvh::ilist_node.204" }
%"class.llvh::ilist_node.204" = type { %"class.llvh::ilist_node_impl.6" }
%"class.llvh::iplist.205" = type { %"class.llvh::iplist_impl.206" }
%"class.llvh::iplist_impl.206" = type { %"class.llvh::simple_ilist.211" }
%"class.llvh::simple_ilist.211" = type { %"class.llvh::ilist_sentinel.212" }
%"class.llvh::ilist_sentinel.212" = type { %"class.llvh::ilist_node_impl.24" }
%"class.llvh::ilist_node_impl.24" = type { %"class.llvh::ilist_node_base" }

@.str.29 = private unnamed_addr constant [3 x i8] c"&&\00", align 1
@.str.30 = private unnamed_addr constant [3 x i8] c"||\00", align 1

; Function Attrs: mustprogress nounwind uwtable
define linkonce_odr hidden noundef ptr @_ZNK6hermes10BasicBlock9getParentEv(ptr noundef nonnull align 8 dereferenceable(80) %this) #0 comdat align 2 {
entry:
  %this.addr = alloca ptr, align 8
  store ptr %this, ptr %this.addr, align 8
  %this1 = load ptr, ptr %this.addr, align 8
  %Parent = getelementptr inbounds %"class.hermes::BasicBlock", ptr %this1, i32 0, i32 3
  %0 = load ptr, ptr %Parent, align 8
  ret ptr %0
}

; Function Attrs: mustprogress nounwind uwtable
define linkonce_odr hidden noundef nonnull align 8 dereferenceable(16) ptr @_ZNK6hermes12UniqueString3strEv(ptr noundef nonnull align 8 dereferenceable(16) %this) #0 comdat align 2 {
entry:
  %this.addr = alloca ptr, align 8
  store ptr %this, ptr %this.addr, align 8
  %this1 = load ptr, ptr %this.addr, align 8
  %str_ = getelementptr inbounds %"class.hermes::UniqueString", ptr %this1, i32 0, i32 0
  ret ptr %str_
}

; Function Attrs: mustprogress nounwind uwtable
define hidden void @_ZN6hermes5irgen11ESTreeIRGen26genLogicalExpressionBranchEPNS_6ESTree21LogicalExpressionNodeEPNS_10BasicBlockES6_S6_(ptr noundef nonnull align 8 dereferenceable(200) %this, ptr noundef %logical, ptr noundef %onTrue, ptr noundef %onFalse, ptr noundef %onNullish) #0 align 2 {
entry:
  %retval.i50 = alloca i32, align 4
  %Lhs.addr.i51 = alloca ptr, align 8
  %Rhs.addr.i52 = alloca ptr, align 8
  %Length.addr.i53 = alloca i64, align 8
  %retval.i = alloca i32, align 4
  %Lhs.addr.i = alloca ptr, align 8
  %Rhs.addr.i = alloca ptr, align 8
  %Length.addr.i = alloca i64, align 8
  %RHS.i37 = alloca %"class.llvh::StringRef", align 8
  %this.addr.i38 = alloca ptr, align 8
  %RHS.i32 = alloca %"class.llvh::StringRef", align 8
  %this.addr.i33 = alloca ptr, align 8
  %LHS.i28 = alloca %"class.llvh::StringRef", align 8
  %RHS.i29 = alloca %"class.llvh::StringRef", align 8
  %agg.tmp.i30 = alloca %"class.llvh::StringRef", align 8
  %LHS.i = alloca %"class.llvh::StringRef", align 8
  %RHS.i = alloca %"class.llvh::StringRef", align 8
  %agg.tmp.i = alloca %"class.llvh::StringRef", align 8
  %this.addr.i17 = alloca ptr, align 8
  %Str.addr.i18 = alloca ptr, align 8
  %this.addr.i = alloca ptr, align 8
  %Str.addr.i = alloca ptr, align 8
  %this.addr = alloca ptr, align 8
  %logical.addr = alloca ptr, align 8
  %onTrue.addr = alloca ptr, align 8
  %onFalse.addr = alloca ptr, align 8
  %onNullish.addr = alloca ptr, align 8
  %opStr = alloca %"class.llvh::StringRef", align 8
  %parentFunc = alloca ptr, align 8
  %block = alloca ptr, align 8
  %agg.tmp = alloca %"class.llvh::StringRef", align 8
  %agg.tmp6 = alloca %"class.llvh::StringRef", align 8
  %agg.tmp8 = alloca %"class.llvh::StringRef", align 8
  %agg.tmp9 = alloca %"class.llvh::StringRef", align 8
  store ptr %this, ptr %this.addr, align 8
  store ptr %logical, ptr %logical.addr, align 8
  store ptr %onTrue, ptr %onTrue.addr, align 8
  store ptr %onFalse, ptr %onFalse.addr, align 8
  store ptr %onNullish, ptr %onNullish.addr, align 8
  %this1 = load ptr, ptr %this.addr, align 8
  %0 = load ptr, ptr %logical.addr, align 8
  %_operator = getelementptr inbounds %"class.hermes::ESTree::LogicalExpressionNode", ptr %0, i32 0, i32 3
  %1 = load ptr, ptr %_operator, align 8
  %call = call noundef nonnull align 8 dereferenceable(16) ptr @_ZNK6hermes12UniqueString3strEv(ptr noundef nonnull align 8 dereferenceable(16) %1)
  call void @llvm.memcpy.p0.p0.i64(ptr align 8 %opStr, ptr align 8 %call, i64 16, i1 false)
  br label %do.body

do.body:                                          ; preds = %entry
  br label %do.end

do.end:                                           ; preds = %do.body
  %Builder = getelementptr inbounds %"class.hermes::irgen::ESTreeIRGen", ptr %this1, i32 0, i32 1
  %call2 = call noundef ptr @_ZN6hermes9IRBuilder17getInsertionBlockEv(ptr noundef nonnull align 8 dereferenceable(40) %Builder)
  %call3 = call noundef ptr @_ZNK6hermes10BasicBlock9getParentEv(ptr noundef nonnull align 8 dereferenceable(80) %call2)
  store ptr %call3, ptr %parentFunc, align 8
  %Builder4 = getelementptr inbounds %"class.hermes::irgen::ESTreeIRGen", ptr %this1, i32 0, i32 1
  %2 = load ptr, ptr %parentFunc, align 8
  %call5 = call noundef ptr @_ZN6hermes9IRBuilder16createBasicBlockEPNS_8FunctionE(ptr noundef nonnull align 8 dereferenceable(40) %Builder4, ptr noundef %2)
  store ptr %call5, ptr %block, align 8
  call void @llvm.memcpy.p0.p0.i64(ptr align 8 %agg.tmp, ptr align 8 %opStr, i64 16, i1 false)
  store ptr %agg.tmp6, ptr %this.addr.i, align 8
  store ptr @.str.29, ptr %Str.addr.i, align 8
  %this1.i = load ptr, ptr %this.addr.i, align 8
  %3 = load ptr, ptr %Str.addr.i, align 8
  store ptr %3, ptr %this1.i, align 8
  %Length.i = getelementptr inbounds %"class.llvh::StringRef", ptr %this1.i, i32 0, i32 1
  %4 = load ptr, ptr %Str.addr.i, align 8
  %tobool.i = icmp ne ptr %4, null
  br i1 %tobool.i, label %cond.true.i, label %cond.false.i

cond.true.i:                                      ; preds = %do.end
  %5 = load ptr, ptr %Str.addr.i, align 8
  %call.i = call i64 @strlen(ptr noundef %5) #11
  br label %_ZN4llvh9StringRefC2EPKc.exit

cond.false.i:                                     ; preds = %do.end
  br label %_ZN4llvh9StringRefC2EPKc.exit

_ZN4llvh9StringRefC2EPKc.exit:                    ; preds = %cond.false.i, %cond.true.i
  %cond.i = phi i64 [ %call.i, %cond.true.i ], [ 0, %cond.false.i ]
  store i64 %cond.i, ptr %Length.i, align 8
  %6 = getelementptr inbounds { ptr, i64 }, ptr %agg.tmp, i32 0, i32 0
  %7 = load ptr, ptr %6, align 8
  %8 = getelementptr inbounds { ptr, i64 }, ptr %agg.tmp, i32 0, i32 1
  %9 = load i64, ptr %8, align 8
  %10 = getelementptr inbounds { ptr, i64 }, ptr %agg.tmp6, i32 0, i32 0
  %11 = load ptr, ptr %10, align 8
  %12 = getelementptr inbounds { ptr, i64 }, ptr %agg.tmp6, i32 0, i32 1
  %13 = load i64, ptr %12, align 8
  store ptr %7, ptr %LHS.i28, align 8
  %14 = getelementptr inbounds { ptr, i64 }, ptr %LHS.i28, i32 0, i32 1
  store i64 %9, ptr %14, align 8
  store ptr %11, ptr %RHS.i29, align 8
  %15 = getelementptr inbounds { ptr, i64 }, ptr %RHS.i29, i32 0, i32 1
  store i64 %13, ptr %15, align 8
  call void @llvm.memcpy.p0.p0.i64(ptr align 8 %agg.tmp.i30, ptr align 8 %RHS.i29, i64 16, i1 false)
  %16 = load ptr, ptr %agg.tmp.i30, align 8
  %17 = getelementptr inbounds { ptr, i64 }, ptr %agg.tmp.i30, i32 0, i32 1
  %18 = load i64, ptr %17, align 8
  store ptr %16, ptr %RHS.i32, align 8
  %19 = getelementptr inbounds { ptr, i64 }, ptr %RHS.i32, i32 0, i32 1
  store i64 %18, ptr %19, align 8
  store ptr %LHS.i28, ptr %this.addr.i33, align 8
  %this1.i34 = load ptr, ptr %this.addr.i33, align 8
  %Length.i35 = getelementptr inbounds %"class.llvh::StringRef", ptr %this1.i34, i32 0, i32 1
  %20 = load i64, ptr %Length.i35, align 8
  %Length2.i = getelementptr inbounds %"class.llvh::StringRef", ptr %RHS.i32, i32 0, i32 1
  %21 = load i64, ptr %Length2.i, align 8
  %cmp.i = icmp eq i64 %20, %21
  br i1 %cmp.i, label %land.rhs.i, label %_ZNK4llvh9StringRef6equalsES0_.exit

land.rhs.i:                                       ; preds = %_ZN4llvh9StringRefC2EPKc.exit
  %22 = load ptr, ptr %this1.i34, align 8
  %23 = load ptr, ptr %RHS.i32, align 8
  %Length4.i = getelementptr inbounds %"class.llvh::StringRef", ptr %RHS.i32, i32 0, i32 1
  %24 = load i64, ptr %Length4.i, align 8
  store ptr %22, ptr %Lhs.addr.i51, align 8
  store ptr %23, ptr %Rhs.addr.i52, align 8
  store i64 %24, ptr %Length.addr.i53, align 8
  %25 = load i64, ptr %Length.addr.i53, align 8
  %cmp.i54 = icmp eq i64 %25, 0
  br i1 %cmp.i54, label %if.then.i57, label %if.end.i55

if.then.i57:                                      ; preds = %land.rhs.i
  store i32 0, ptr %retval.i50, align 4
  br label %_ZN4llvh9StringRef13compareMemoryEPKcS2_m.exit58

if.end.i55:                                       ; preds = %land.rhs.i
  %26 = load ptr, ptr %Lhs.addr.i51, align 8
  %27 = load ptr, ptr %Rhs.addr.i52, align 8
  %28 = load i64, ptr %Length.addr.i53, align 8
  %call.i56 = call i32 @memcmp(ptr noundef %26, ptr noundef %27, i64 noundef %28) #11
  store i32 %call.i56, ptr %retval.i50, align 4
  br label %_ZN4llvh9StringRef13compareMemoryEPKcS2_m.exit58

_ZN4llvh9StringRef13compareMemoryEPKcS2_m.exit58: ; preds = %if.end.i55, %if.then.i57
  %29 = load i32, ptr %retval.i50, align 4
  %cmp5.i = icmp eq i32 %29, 0
  br label %_ZNK4llvh9StringRef6equalsES0_.exit

_ZNK4llvh9StringRef6equalsES0_.exit:              ; preds = %_ZN4llvh9StringRef13compareMemoryEPKcS2_m.exit58, %_ZN4llvh9StringRefC2EPKc.exit
  %30 = phi i1 [ false, %_ZN4llvh9StringRefC2EPKc.exit ], [ %cmp5.i, %_ZN4llvh9StringRef13compareMemoryEPKcS2_m.exit58 ]
  br i1 %30, label %if.then, label %if.else

if.then:                                          ; preds = %_ZNK4llvh9StringRef6equalsES0_.exit
  %31 = load ptr, ptr %logical.addr, align 8
  %_left = getelementptr inbounds %"class.hermes::ESTree::LogicalExpressionNode", ptr %31, i32 0, i32 1
  %32 = load ptr, ptr %_left, align 8
  %33 = load ptr, ptr %block, align 8
  %34 = load ptr, ptr %onFalse.addr, align 8
  %35 = load ptr, ptr %onNullish.addr, align 8
  call void @_ZN6hermes5irgen11ESTreeIRGen19genExpressionBranchEPNS_6ESTree4NodeEPNS_10BasicBlockES6_S6_(ptr noundef nonnull align 8 dereferenceable(200) %this1, ptr noundef %32, ptr noundef %33, ptr noundef %34, ptr noundef %35)
  br label %if.end15

if.else:                                          ; preds = %_ZNK4llvh9StringRef6equalsES0_.exit
  call void @llvm.memcpy.p0.p0.i64(ptr align 8 %agg.tmp8, ptr align 8 %opStr, i64 16, i1 false)
  store ptr %agg.tmp9, ptr %this.addr.i17, align 8
  store ptr @.str.30, ptr %Str.addr.i18, align 8
  %this1.i19 = load ptr, ptr %this.addr.i17, align 8
  %36 = load ptr, ptr %Str.addr.i18, align 8
  store ptr %36, ptr %this1.i19, align 8
  %Length.i20 = getelementptr inbounds %"class.llvh::StringRef", ptr %this1.i19, i32 0, i32 1
  %37 = load ptr, ptr %Str.addr.i18, align 8
  %tobool.i21 = icmp ne ptr %37, null
  br i1 %tobool.i21, label %cond.true.i24, label %cond.false.i22

cond.true.i24:                                    ; preds = %if.else
  %38 = load ptr, ptr %Str.addr.i18, align 8
  %call.i25 = call i64 @strlen(ptr noundef %38) #11
  br label %_ZN4llvh9StringRefC2EPKc.exit26

cond.false.i22:                                   ; preds = %if.else
  br label %_ZN4llvh9StringRefC2EPKc.exit26

_ZN4llvh9StringRefC2EPKc.exit26:                  ; preds = %cond.false.i22, %cond.true.i24
  %cond.i23 = phi i64 [ %call.i25, %cond.true.i24 ], [ 0, %cond.false.i22 ]
  store i64 %cond.i23, ptr %Length.i20, align 8
  %39 = getelementptr inbounds { ptr, i64 }, ptr %agg.tmp8, i32 0, i32 0
  %40 = load ptr, ptr %39, align 8
  %41 = getelementptr inbounds { ptr, i64 }, ptr %agg.tmp8, i32 0, i32 1
  %42 = load i64, ptr %41, align 8
  %43 = getelementptr inbounds { ptr, i64 }, ptr %agg.tmp9, i32 0, i32 0
  %44 = load ptr, ptr %43, align 8
  %45 = getelementptr inbounds { ptr, i64 }, ptr %agg.tmp9, i32 0, i32 1
  %46 = load i64, ptr %45, align 8
  store ptr %40, ptr %LHS.i, align 8
  %47 = getelementptr inbounds { ptr, i64 }, ptr %LHS.i, i32 0, i32 1
  store i64 %42, ptr %47, align 8
  store ptr %44, ptr %RHS.i, align 8
  %48 = getelementptr inbounds { ptr, i64 }, ptr %RHS.i, i32 0, i32 1
  store i64 %46, ptr %48, align 8
  call void @llvm.memcpy.p0.p0.i64(ptr align 8 %agg.tmp.i, ptr align 8 %RHS.i, i64 16, i1 false)
  %49 = load ptr, ptr %agg.tmp.i, align 8
  %50 = getelementptr inbounds { ptr, i64 }, ptr %agg.tmp.i, i32 0, i32 1
  %51 = load i64, ptr %50, align 8
  store ptr %49, ptr %RHS.i37, align 8
  %52 = getelementptr inbounds { ptr, i64 }, ptr %RHS.i37, i32 0, i32 1
  store i64 %51, ptr %52, align 8
  store ptr %LHS.i, ptr %this.addr.i38, align 8
  %this1.i39 = load ptr, ptr %this.addr.i38, align 8
  %Length.i40 = getelementptr inbounds %"class.llvh::StringRef", ptr %this1.i39, i32 0, i32 1
  %53 = load i64, ptr %Length.i40, align 8
  %Length2.i41 = getelementptr inbounds %"class.llvh::StringRef", ptr %RHS.i37, i32 0, i32 1
  %54 = load i64, ptr %Length2.i41, align 8
  %cmp.i42 = icmp eq i64 %53, %54
  br i1 %cmp.i42, label %land.rhs.i43, label %_ZNK4llvh9StringRef6equalsES0_.exit47

land.rhs.i43:                                     ; preds = %_ZN4llvh9StringRefC2EPKc.exit26
  %55 = load ptr, ptr %this1.i39, align 8
  %56 = load ptr, ptr %RHS.i37, align 8
  %Length4.i44 = getelementptr inbounds %"class.llvh::StringRef", ptr %RHS.i37, i32 0, i32 1
  %57 = load i64, ptr %Length4.i44, align 8
  store ptr %55, ptr %Lhs.addr.i, align 8
  store ptr %56, ptr %Rhs.addr.i, align 8
  store i64 %57, ptr %Length.addr.i, align 8
  %58 = load i64, ptr %Length.addr.i, align 8
  %cmp.i48 = icmp eq i64 %58, 0
  br i1 %cmp.i48, label %if.then.i, label %if.end.i

if.then.i:                                        ; preds = %land.rhs.i43
  store i32 0, ptr %retval.i, align 4
  br label %_ZN4llvh9StringRef13compareMemoryEPKcS2_m.exit

if.end.i:                                         ; preds = %land.rhs.i43
  %59 = load ptr, ptr %Lhs.addr.i, align 8
  %60 = load ptr, ptr %Rhs.addr.i, align 8
  %61 = load i64, ptr %Length.addr.i, align 8
  %call.i49 = call i32 @memcmp(ptr noundef %59, ptr noundef %60, i64 noundef %61) #11
  store i32 %call.i49, ptr %retval.i, align 4
  br label %_ZN4llvh9StringRef13compareMemoryEPKcS2_m.exit

_ZN4llvh9StringRef13compareMemoryEPKcS2_m.exit:   ; preds = %if.end.i, %if.then.i
  %62 = load i32, ptr %retval.i, align 4
  %cmp5.i46 = icmp eq i32 %62, 0
  br label %_ZNK4llvh9StringRef6equalsES0_.exit47

_ZNK4llvh9StringRef6equalsES0_.exit47:            ; preds = %_ZN4llvh9StringRef13compareMemoryEPKcS2_m.exit, %_ZN4llvh9StringRefC2EPKc.exit26
  %63 = phi i1 [ false, %_ZN4llvh9StringRefC2EPKc.exit26 ], [ %cmp5.i46, %_ZN4llvh9StringRef13compareMemoryEPKcS2_m.exit ]
  br i1 %63, label %if.then11, label %if.else13

if.then11:                                        ; preds = %_ZNK4llvh9StringRef6equalsES0_.exit47
  %64 = load ptr, ptr %logical.addr, align 8
  %_left12 = getelementptr inbounds %"class.hermes::ESTree::LogicalExpressionNode", ptr %64, i32 0, i32 1
  %65 = load ptr, ptr %_left12, align 8
  %66 = load ptr, ptr %onTrue.addr, align 8
  %67 = load ptr, ptr %block, align 8
  %68 = load ptr, ptr %onNullish.addr, align 8
  call void @_ZN6hermes5irgen11ESTreeIRGen19genExpressionBranchEPNS_6ESTree4NodeEPNS_10BasicBlockES6_S6_(ptr noundef nonnull align 8 dereferenceable(200) %this1, ptr noundef %65, ptr noundef %66, ptr noundef %67, ptr noundef %68)
  br label %if.end

if.else13:                                        ; preds = %_ZNK4llvh9StringRef6equalsES0_.exit47
  %69 = load ptr, ptr %logical.addr, align 8
  %_left14 = getelementptr inbounds %"class.hermes::ESTree::LogicalExpressionNode", ptr %69, i32 0, i32 1
  %70 = load ptr, ptr %_left14, align 8
  %71 = load ptr, ptr %onTrue.addr, align 8
  %72 = load ptr, ptr %onFalse.addr, align 8
  %73 = load ptr, ptr %block, align 8
  call void @_ZN6hermes5irgen11ESTreeIRGen19genExpressionBranchEPNS_6ESTree4NodeEPNS_10BasicBlockES6_S6_(ptr noundef nonnull align 8 dereferenceable(200) %this1, ptr noundef %70, ptr noundef %71, ptr noundef %72, ptr noundef %73)
  br label %if.end

if.end:                                           ; preds = %if.else13, %if.then11
  br label %if.end15

if.end15:                                         ; preds = %if.end, %if.then
  %Builder16 = getelementptr inbounds %"class.hermes::irgen::ESTreeIRGen", ptr %this1, i32 0, i32 1
  %74 = load ptr, ptr %block, align 8
  call void @_ZN6hermes9IRBuilder17setInsertionBlockEPNS_10BasicBlockE(ptr noundef nonnull align 8 dereferenceable(40) %Builder16, ptr noundef %74)
  %75 = load ptr, ptr %logical.addr, align 8
  %_right = getelementptr inbounds %"class.hermes::ESTree::LogicalExpressionNode", ptr %75, i32 0, i32 2
  %76 = load ptr, ptr %_right, align 8
  %77 = load ptr, ptr %onTrue.addr, align 8
  %78 = load ptr, ptr %onFalse.addr, align 8
  %79 = load ptr, ptr %onNullish.addr, align 8
  call void @_ZN6hermes5irgen11ESTreeIRGen19genExpressionBranchEPNS_6ESTree4NodeEPNS_10BasicBlockES6_S6_(ptr noundef nonnull align 8 dereferenceable(200) %this1, ptr noundef %76, ptr noundef %77, ptr noundef %78, ptr noundef %79)
  ret void
}