; Function Attrs: mustprogress nounwind uwtable
define hidden void @_ZN6hermes5irgen11ESTreeIRGen26genLogicalExpressionBranchEPNS_6ESTree21LogicalExpressionNodeEPNS_10BasicBlockES6_S6_(ptr noundef nonnull align 8 dereferenceable(200) %this, ptr nocapture noundef readonly %logical, ptr noundef %onTrue, ptr noundef %onFalse, ptr noundef %onNullish) local_unnamed_addr #0 align 2 {
entry:
  %_operator = getelementptr inbounds i8, ptr %logical, i64 64
  %0 = load ptr, ptr %_operator, align 8
  %opStr.sroa.0.0.copyload = load ptr, ptr %0, align 8
  %opStr.sroa.3.0.call.sroa_idx = getelementptr inbounds i8, ptr %0, i64 8
  %opStr.sroa.3.0.copyload = load i64, ptr %opStr.sroa.3.0.call.sroa_idx, align 8
  %Builder = getelementptr inbounds i8, ptr %this, i64 8
  %call2 = tail call noundef ptr @_ZN6hermes9IRBuilder17getInsertionBlockEv(ptr noundef nonnull align 8 dereferenceable(40) %Builder) #16
  %Parent.i = getelementptr inbounds i8, ptr %call2, i64 72
  %1 = load ptr, ptr %Parent.i, align 8
  %call5 = tail call noundef ptr @_ZN6hermes9IRBuilder16createBasicBlockEPNS_8FunctionE(ptr noundef nonnull align 8 dereferenceable(40) %Builder, ptr noundef %1) #16
  %cond = icmp eq i64 %opStr.sroa.3.0.copyload, 2
  br i1 %cond, label %if.end.i55, label %if.else13

if.end.i55:                                       ; preds = %entry
  %bcmp = tail call i32 @bcmp(ptr noundef nonnull dereferenceable(2) %opStr.sroa.0.0.copyload, ptr noundef nonnull dereferenceable(2) @.str.29, i64 2)
  %2 = icmp eq i32 %bcmp, 0
  br i1 %2, label %if.then, label %if.end.i

if.then:                                          ; preds = %if.end.i55
  %_left = getelementptr inbounds i8, ptr %logical, i64 48
  %3 = load ptr, ptr %_left, align 8
  tail call void @_ZN6hermes5irgen11ESTreeIRGen19genExpressionBranchEPNS_6ESTree4NodeEPNS_10BasicBlockES6_S6_(ptr noundef nonnull align 8 dereferenceable(200) %this, ptr noundef %3, ptr noundef %call5, ptr noundef %onFalse, ptr noundef %onNullish)
  br label %if.end15

if.end.i:                                         ; preds = %if.end.i55
  %bcmp23 = tail call i32 @bcmp(ptr noundef nonnull dereferenceable(2) %opStr.sroa.0.0.copyload, ptr noundef nonnull dereferenceable(2) @.str.30, i64 2)
  %4 = icmp eq i32 %bcmp23, 0
  br i1 %4, label %if.then11, label %if.else13

if.then11:                                        ; preds = %if.end.i
  %_left12 = getelementptr inbounds i8, ptr %logical, i64 48
  %5 = load ptr, ptr %_left12, align 8
  tail call void @_ZN6hermes5irgen11ESTreeIRGen19genExpressionBranchEPNS_6ESTree4NodeEPNS_10BasicBlockES6_S6_(ptr noundef nonnull align 8 dereferenceable(200) %this, ptr noundef %5, ptr noundef %onTrue, ptr noundef %call5, ptr noundef %onNullish)
  br label %if.end15

if.else13:                                        ; preds = %entry, %if.end.i
  %_left14 = getelementptr inbounds i8, ptr %logical, i64 48
  %6 = load ptr, ptr %_left14, align 8
  tail call void @_ZN6hermes5irgen11ESTreeIRGen19genExpressionBranchEPNS_6ESTree4NodeEPNS_10BasicBlockES6_S6_(ptr noundef nonnull align 8 dereferenceable(200) %this, ptr noundef %6, ptr noundef %onTrue, ptr noundef %onFalse, ptr noundef %call5)
  br label %if.end15

if.end15:                                         ; preds = %if.then11, %if.else13, %if.then
  tail call void @_ZN6hermes9IRBuilder17setInsertionBlockEPNS_10BasicBlockE(ptr noundef nonnull align 8 dereferenceable(40) %Builder, ptr noundef %call5) #16
  %_right = getelementptr inbounds i8, ptr %logical, i64 56
  %7 = load ptr, ptr %_right, align 8
  tail call void @_ZN6hermes5irgen11ESTreeIRGen19genExpressionBranchEPNS_6ESTree4NodeEPNS_10BasicBlockES6_S6_(ptr noundef nonnull align 8 dereferenceable(200) %this, ptr noundef %7, ptr noundef %onTrue, ptr noundef %onFalse, ptr noundef %onNullish)
  ret void
}